target datalayout = "e-m:e-p270:32:32-p271:32:32-p272:64:64-i64:64-i128:128-f80:128-n8:16:32:64-S128"
target triple = "x86_64-pc-linux-gnu"

%struct.AVCodecParameters = type { i32, i32, i32, ptr, i32, ptr, i32, i32, i64, i32, i32, i32, i32, i32, i32, %struct.AVRational, %struct.AVRational, i32, i32, i32, i32, i32, i32, i32, %struct.AVChannelLayout, i32, i32, i32, i32, i32, i32 }
%struct.AVRational = type { i32, i32 }
%struct.AVChannelLayout = type { i32, i32, %union.anon, ptr }
%union.anon = type { i64 }
%struct.AVPacket = type { ptr, i64, i64, ptr, i32, i32, i32, ptr, i32, i64, i64, ptr, ptr, %struct.AVRational }
%struct.AVFormatContext = type { ptr, ptr, ptr, ptr, ptr, i32, i32, ptr, i32, ptr, i32, ptr, ptr, i64, i64, i64, i32, i32, i32, i64, i64, ptr, i32, i32, ptr, i32, i32, i32, i32, ptr, i64, i32, i32, %struct.AVIOInterruptCB, i32, i32, i32, i32, i64, i32, i32, i32, i32, i32, i32, i32, i32, i32, i32, i32, i32, i64, i32, i32, i32, i32, i32, ptr, ptr, ptr, ptr, i32, ptr, ptr, ptr, ptr, i32, ptr, ptr, i64, ptr, ptr, ptr, i64 }
%struct.AVIOInterruptCB = type { ptr, ptr }
%struct.AVStream = type { ptr, i32, i32, ptr, ptr, %struct.AVRational, i64, i64, i64, i32, i32, %struct.AVRational, ptr, %struct.AVRational, %struct.AVPacket, i32, %struct.AVRational, i32 }

@.str.3 = private unnamed_addr constant [11 x i8] c"framesize:\00", align 1
@.str.4 = private unnamed_addr constant [6 x i8] c"fmtp:\00", align 1
@.str.5 = private unnamed_addr constant [10 x i8] c"cliprect:\00", align 1

; Function Attrs: inlinehint nounwind willreturn memory(read) uwtable
define available_externally i32 @atoi(ptr noundef nonnull %0) #5 {
  %2 = alloca ptr, align 8
  store ptr %0, ptr %2, align 8, !tbaa !14
  %3 = load ptr, ptr %2, align 8, !tbaa !14
  %4 = call i64 @strtol(ptr noundef %3, ptr noundef null, i32 noundef 10) #9
  %5 = trunc i64 %4 to i32
  ret i32 %5
}

; Function Attrs: nounwind uwtable
define void @ff_h264_parse_framesize(ptr noundef %0, ptr noundef %1) #0 {
  %3 = alloca ptr, align 8
  %4 = alloca ptr, align 8
  %5 = alloca [50 x i8], align 16
  %6 = alloca ptr, align 8
  store ptr %0, ptr %3, align 8, !tbaa !22
  store ptr %1, ptr %4, align 8, !tbaa !14
  call void @llvm.lifetime.start.p0(i64 50, ptr %5) #9
  call void @llvm.lifetime.start.p0(i64 8, ptr %6) #9
  %7 = getelementptr inbounds [50 x i8], ptr %5, i64 0, i64 0
  store ptr %7, ptr %6, align 8, !tbaa !14
  br label %8

8:                                                ; preds = %20, %2
  %9 = load ptr, ptr %4, align 8, !tbaa !14
  %10 = load i8, ptr %9, align 1, !tbaa !16
  %11 = sext i8 %10 to i32
  %12 = icmp ne i32 %11, 0
  br i1 %12, label %13, label %18

13:                                               ; preds = %8
  %14 = load ptr, ptr %4, align 8, !tbaa !14
  %15 = load i8, ptr %14, align 1, !tbaa !16
  %16 = sext i8 %15 to i32
  %17 = icmp eq i32 %16, 32
  br label %18

18:                                               ; preds = %13, %8
  %19 = phi i1 [ false, %8 ], [ %17, %13 ]
  br i1 %19, label %20, label %23

20:                                               ; preds = %18
  %21 = load ptr, ptr %4, align 8, !tbaa !14
  %22 = getelementptr inbounds nuw i8, ptr %21, i32 1
  store ptr %22, ptr %4, align 8, !tbaa !14
  br label %8, !llvm.loop !24

23:                                               ; preds = %18
  br label %24

24:                                               ; preds = %36, %23
  %25 = load ptr, ptr %4, align 8, !tbaa !14
  %26 = load i8, ptr %25, align 1, !tbaa !16
  %27 = sext i8 %26 to i32
  %28 = icmp ne i32 %27, 0
  br i1 %28, label %29, label %34

29:                                               ; preds = %24
  %30 = load ptr, ptr %4, align 8, !tbaa !14
  %31 = load i8, ptr %30, align 1, !tbaa !16
  %32 = sext i8 %31 to i32
  %33 = icmp ne i32 %32, 32
  br label %34

34:                                               ; preds = %29, %24
  %35 = phi i1 [ false, %24 ], [ %33, %29 ]
  br i1 %35, label %36, label %39

36:                                               ; preds = %34
  %37 = load ptr, ptr %4, align 8, !tbaa !14
  %38 = getelementptr inbounds nuw i8, ptr %37, i32 1
  store ptr %38, ptr %4, align 8, !tbaa !14
  br label %24, !llvm.loop !25

39:                                               ; preds = %34
  br label %40

40:                                               ; preds = %52, %39
  %41 = load ptr, ptr %4, align 8, !tbaa !14
  %42 = load i8, ptr %41, align 1, !tbaa !16
  %43 = sext i8 %42 to i32
  %44 = icmp ne i32 %43, 0
  br i1 %44, label %45, label %50

45:                                               ; preds = %40
  %46 = load ptr, ptr %4, align 8, !tbaa !14
  %47 = load i8, ptr %46, align 1, !tbaa !16
  %48 = sext i8 %47 to i32
  %49 = icmp eq i32 %48, 32
  br label %50

50:                                               ; preds = %45, %40
  %51 = phi i1 [ false, %40 ], [ %49, %45 ]
  br i1 %51, label %52, label %55

52:                                               ; preds = %50
  %53 = load ptr, ptr %4, align 8, !tbaa !14
  %54 = getelementptr inbounds nuw i8, ptr %53, i32 1
  store ptr %54, ptr %4, align 8, !tbaa !14
  br label %40, !llvm.loop !26

55:                                               ; preds = %50
  br label %56

56:                                               ; preds = %75, %55
  %57 = load ptr, ptr %4, align 8, !tbaa !14
  %58 = load i8, ptr %57, align 1, !tbaa !16
  %59 = sext i8 %58 to i32
  %60 = icmp ne i32 %59, 0
  br i1 %60, label %61, label %73

61:                                               ; preds = %56
  %62 = load ptr, ptr %4, align 8, !tbaa !14
  %63 = load i8, ptr %62, align 1, !tbaa !16
  %64 = sext i8 %63 to i32
  %65 = icmp ne i32 %64, 45
  br i1 %65, label %66, label %73

66:                                               ; preds = %61
  %67 = load ptr, ptr %6, align 8, !tbaa !14
  %68 = getelementptr inbounds [50 x i8], ptr %5, i64 0, i64 0
  %69 = ptrtoint ptr %67 to i64
  %70 = ptrtoint ptr %68 to i64
  %71 = sub i64 %69, %70
  %72 = icmp ult i64 %71, 49
  br label %73

73:                                               ; preds = %66, %61, %56
  %74 = phi i1 [ false, %61 ], [ false, %56 ], [ %72, %66 ]
  br i1 %74, label %75, label %81

75:                                               ; preds = %73
  %76 = load ptr, ptr %4, align 8, !tbaa !14
  %77 = getelementptr inbounds nuw i8, ptr %76, i32 1
  store ptr %77, ptr %4, align 8, !tbaa !14
  %78 = load i8, ptr %76, align 1, !tbaa !16
  %79 = load ptr, ptr %6, align 8, !tbaa !14
  %80 = getelementptr inbounds nuw i8, ptr %79, i32 1
  store ptr %80, ptr %6, align 8, !tbaa !14
  store i8 %78, ptr %79, align 1, !tbaa !16
  br label %56, !llvm.loop !27

81:                                               ; preds = %73
  %82 = load ptr, ptr %6, align 8, !tbaa !14
  store i8 0, ptr %82, align 1, !tbaa !16
  %83 = getelementptr inbounds [50 x i8], ptr %5, i64 0, i64 0
  %84 = call i32 @atoi(ptr noundef %83) #10
  %85 = load ptr, ptr %3, align 8, !tbaa !22
  %86 = getelementptr inbounds nuw %struct.AVCodecParameters, ptr %85, i32 0, i32 13
  store i32 %84, ptr %86, align 8, !tbaa !28
  %87 = load ptr, ptr %4, align 8, !tbaa !14
  %88 = getelementptr inbounds i8, ptr %87, i64 1
  %89 = call i32 @atoi(ptr noundef %88) #10
  %90 = load ptr, ptr %3, align 8, !tbaa !22
  %91 = getelementptr inbounds nuw %struct.AVCodecParameters, ptr %90, i32 0, i32 14
  store i32 %89, ptr %91, align 4, !tbaa !34
  call void @llvm.lifetime.end.p0(i64 8, ptr %6) #9
  call void @llvm.lifetime.end.p0(i64 50, ptr %5) #9
  ret void
}

; Function Attrs: nounwind uwtable
define internal i32 @parse_h264_sdp_line(ptr noundef %0, i32 noundef %1, ptr noundef %2, ptr noundef %3) #0 {
  %5 = alloca i32, align 4
  %6 = alloca ptr, align 8
  %7 = alloca i32, align 4
  %8 = alloca ptr, align 8
  %9 = alloca ptr, align 8
  %10 = alloca ptr, align 8
  %11 = alloca ptr, align 8
  %12 = alloca i32, align 4
  store ptr %0, ptr %6, align 8, !tbaa !4
  store i32 %1, ptr %7, align 4, !tbaa !19
  store ptr %2, ptr %8, align 8, !tbaa !35
  store ptr %3, ptr %9, align 8, !tbaa !14
  call void @llvm.lifetime.start.p0(i64 8, ptr %10) #9
  call void @llvm.lifetime.start.p0(i64 8, ptr %11) #9
  %13 = load ptr, ptr %9, align 8, !tbaa !14
  store ptr %13, ptr %11, align 8, !tbaa !14
  %14 = load i32, ptr %7, align 4, !tbaa !19
  %15 = icmp slt i32 %14, 0
  br i1 %15, label %16, label %17

16:                                               ; preds = %4
  store i32 0, ptr %5, align 4
  store i32 1, ptr %12, align 4
  br label %51

17:                                               ; preds = %4
  %18 = load ptr, ptr %6, align 8, !tbaa !4
  %19 = getelementptr inbounds nuw %struct.AVFormatContext, ptr %18, i32 0, i32 7
  %20 = load ptr, ptr %19, align 8, !tbaa !46
  %21 = load i32, ptr %7, align 4, !tbaa !19
  %22 = sext i32 %21 to i64
  %23 = getelementptr inbounds ptr, ptr %20, i64 %22
  %24 = load ptr, ptr %23, align 8, !tbaa !59
  store ptr %24, ptr %10, align 8, !tbaa !59
  %25 = load ptr, ptr %11, align 8, !tbaa !14
  %26 = call i32 @av_strstart(ptr noundef %25, ptr noundef @.str.3, ptr noundef %11)
  %27 = icmp ne i32 %26, 0
  br i1 %27, label %28, label %33

28:                                               ; preds = %17
  %29 = load ptr, ptr %10, align 8, !tbaa !59
  %30 = getelementptr inbounds nuw %struct.AVStream, ptr %29, i32 0, i32 3
  %31 = load ptr, ptr %30, align 8, !tbaa !61
  %32 = load ptr, ptr %11, align 8, !tbaa !14
  call void @ff_h264_parse_framesize(ptr noundef %31, ptr noundef %32)
  br label %50

33:                                               ; preds = %17
  %34 = load ptr, ptr %11, align 8, !tbaa !14
  %35 = call i32 @av_strstart(ptr noundef %34, ptr noundef @.str.4, ptr noundef %11)
  %36 = icmp ne i32 %35, 0
  br i1 %36, label %37, label %43

37:                                               ; preds = %33
  %38 = load ptr, ptr %6, align 8, !tbaa !4
  %39 = load ptr, ptr %10, align 8, !tbaa !59
  %40 = load ptr, ptr %8, align 8, !tbaa !35
  %41 = load ptr, ptr %11, align 8, !tbaa !14
  %42 = call i32 @ff_parse_fmtp(ptr noundef %38, ptr noundef %39, ptr noundef %40, ptr noundef %41, ptr noundef @sdp_parse_fmtp_config_h264)
  store i32 %42, ptr %5, align 4
  store i32 1, ptr %12, align 4
  br label %51

43:                                               ; preds = %33
  %44 = load ptr, ptr %11, align 8, !tbaa !14
  %45 = call i32 @av_strstart(ptr noundef %44, ptr noundef @.str.5, ptr noundef %11)
  %46 = icmp ne i32 %45, 0
  br i1 %46, label %47, label %48

47:                                               ; preds = %43
  br label %48

48:                                               ; preds = %47, %43
  br label %49

49:                                               ; preds = %48
  br label %50

50:                                               ; preds = %49, %28
  store i32 0, ptr %5, align 4
  store i32 1, ptr %12, align 4
  br label %51

51:                                               ; preds = %50, %37, %16
  call void @llvm.lifetime.end.p0(i64 8, ptr %11) #9
  call void @llvm.lifetime.end.p0(i64 8, ptr %10) #9
  %52 = load i32, ptr %5, align 4
  ret i32 %52
}