; Function Attrs: nounwind uwtable
define internal i32 @parse_h264_sdp_line(ptr noundef %0, i32 noundef %1, ptr noundef %2, ptr noundef %3) #0 {
  %5 = alloca [50 x i8], align 16
  %6 = alloca ptr, align 8
  call void @llvm.lifetime.start.p0(i64 8, ptr nonnull %6) #10
  store ptr %3, ptr %6, align 8, !tbaa !9
  %7 = icmp slt i32 %1, 0
  br i1 %7, label %51, label %8

8:                                                ; preds = %4
  %9 = getelementptr inbounds nuw i8, ptr %0, i64 48
  %10 = load ptr, ptr %9, align 8, !tbaa !30
  %11 = zext nneg i32 %1 to i64
  %12 = getelementptr inbounds nuw ptr, ptr %10, i64 %11
  %13 = load ptr, ptr %12, align 8, !tbaa !44
  %14 = call i32 @av_strstart(ptr noundef %3, ptr noundef nonnull @.str.3, ptr noundef nonnull %6) #10
  %.not = icmp eq i32 %14, 0
  br i1 %.not, label %43, label %15

15:                                               ; preds = %8
  %16 = getelementptr inbounds nuw i8, ptr %13, i64 16
  %17 = load ptr, ptr %16, align 8, !tbaa !46
  %18 = load ptr, ptr %6, align 8, !tbaa !9
  call void @llvm.lifetime.start.p0(i64 50, ptr nonnull %5) #10
  br label %19

19:                                               ; preds = %19, %15
  %.024.i = phi ptr [ %18, %15 ], [ %21, %19 ]
  %20 = load i8, ptr %.024.i, align 1, !tbaa !4
  %cond.i = icmp eq i8 %20, 32
  %21 = getelementptr inbounds nuw i8, ptr %.024.i, i64 1
  br i1 %cond.i, label %19, label %.critedge.i, !llvm.loop !15

.critedge.i:                                      ; preds = %19, %23
  %22 = phi i8 [ %.pr.i, %23 ], [ %20, %19 ]
  %.1.i = phi ptr [ %24, %23 ], [ %.024.i, %19 ]
  switch i8 %22, label %23 [
    i8 0, label %.critedge2.i.preheader
    i8 32, label %.critedge2.i.preheader
  ]

.critedge2.i.preheader:                           ; preds = %.critedge.i, %.critedge.i
  br label %.critedge2.i

23:                                               ; preds = %.critedge.i
  %24 = getelementptr inbounds nuw i8, ptr %.1.i, i64 1
  %.pr.i = load i8, ptr %24, align 1, !tbaa !4
  br label %.critedge.i, !llvm.loop !16

.critedge2.i:                                     ; preds = %.critedge2.i.preheader, %.critedge2.i
  %.2.i = phi ptr [ %26, %.critedge2.i ], [ %.1.i, %.critedge2.i.preheader ]
  %25 = load i8, ptr %.2.i, align 1, !tbaa !4
  %cond34.i = icmp eq i8 %25, 32
  %26 = getelementptr inbounds nuw i8, ptr %.2.i, i64 1
  br i1 %cond34.i, label %.critedge2.i, label %.critedge4.preheader.i, !llvm.loop !17

.critedge4.preheader.i:                           ; preds = %.critedge2.i
  %27 = ptrtoint ptr %5 to i64
  br label %.critedge4.i

.critedge4.i:                                     ; preds = %33, %.critedge4.preheader.i
  %28 = phi i8 [ %.pr35.i, %33 ], [ %25, %.critedge4.preheader.i ]
  %.3.i = phi ptr [ %34, %33 ], [ %.2.i, %.critedge4.preheader.i ]
  %.0.i = phi ptr [ %35, %33 ], [ %5, %.critedge4.preheader.i ]
  switch i8 %28, label %29 [
    i8 0, label %ff_h264_parse_framesize.exit
    i8 45, label %ff_h264_parse_framesize.exit
  ]

29:                                               ; preds = %.critedge4.i
  %30 = ptrtoint ptr %.0.i to i64
  %31 = sub i64 %30, %27
  %32 = icmp ult i64 %31, 49
  br i1 %32, label %33, label %ff_h264_parse_framesize.exit

33:                                               ; preds = %29
  %34 = getelementptr inbounds nuw i8, ptr %.3.i, i64 1
  %35 = getelementptr inbounds nuw i8, ptr %.0.i, i64 1
  store i8 %28, ptr %.0.i, align 1, !tbaa !4
  %.pr35.i = load i8, ptr %34, align 1, !tbaa !4
  br label %.critedge4.i, !llvm.loop !18

ff_h264_parse_framesize.exit:                     ; preds = %.critedge4.i, %.critedge4.i, %29
  store i8 0, ptr %.0.i, align 1, !tbaa !4
  %36 = call i64 @strtol(ptr noundef nonnull captures(none) %5, ptr noundef null, i32 noundef 10) #10
  %37 = trunc i64 %36 to i32
  %38 = getelementptr inbounds nuw i8, ptr %17, i64 72
  store i32 %37, ptr %38, align 8, !tbaa !19
  %39 = getelementptr inbounds nuw i8, ptr %.3.i, i64 1
  %40 = call i64 @strtol(ptr noundef nonnull captures(none) %39, ptr noundef null, i32 noundef 10) #10
  %41 = trunc i64 %40 to i32
  %42 = getelementptr inbounds nuw i8, ptr %17, i64 76
  store i32 %41, ptr %42, align 4, !tbaa !25
  call void @llvm.lifetime.end.p0(i64 50, ptr nonnull %5) #10
  br label %51

43:                                               ; preds = %8
  %44 = load ptr, ptr %6, align 8, !tbaa !9
  %45 = call i32 @av_strstart(ptr noundef %44, ptr noundef nonnull @.str.4, ptr noundef nonnull %6) #10
  %.not9 = icmp eq i32 %45, 0
  %46 = load ptr, ptr %6, align 8, !tbaa !9
  br i1 %.not9, label %49, label %47

47:                                               ; preds = %43
  %48 = call i32 @ff_parse_fmtp(ptr noundef nonnull %0, ptr noundef %13, ptr noundef %2, ptr noundef %46, ptr noundef nonnull @sdp_parse_fmtp_config_h264) #10
  br label %51

49:                                               ; preds = %43
  %50 = call i32 @av_strstart(ptr noundef %46, ptr noundef nonnull @.str.5, ptr noundef nonnull %6) #10
  br label %51

51:                                               ; preds = %ff_h264_parse_framesize.exit, %49, %4, %47
  %.0 = phi i32 [ %48, %47 ], [ 0, %4 ], [ 0, %49 ], [ 0, %ff_h264_parse_framesize.exit ]
  call void @llvm.lifetime.end.p0(i64 8, ptr nonnull %6) #10
  ret i32 %.0
}